target datalayout = "e-m:e-p270:32:32-p271:32:32-p272:64:64-i64:64-i128:128-f80:128-n8:16:32:64-S128"
target triple = "x86_64-pc-linux-gnu"

; Function Attrs: mustprogress uwtable
define hidden void @_ZN7Imf_3_411TileOffsets19reconstructFromFileERNS_7IStreamEbb(ptr noundef nonnull align 8 dereferenceable(40) %0, ptr noundef nonnull align 8 dereferenceable(40) %1, i1 noundef zeroext %2, i1 noundef zeroext %3) #4 align 2 personality ptr @__gxx_personality_v0 {
  %5 = alloca ptr, align 8
  %6 = alloca ptr, align 8
  %7 = alloca i8, align 1
  %8 = alloca i8, align 1
  %9 = alloca i64, align 8
  %10 = alloca ptr, align 8
  %11 = alloca i32, align 4
  store ptr %0, ptr %5, align 8, !tbaa !3
  store ptr %1, ptr %6, align 8, !tbaa !48
  %12 = zext i1 %2 to i8
  store i8 %12, ptr %7, align 1, !tbaa !50
  %13 = zext i1 %3 to i8
  store i8 %13, ptr %8, align 1, !tbaa !50
  %14 = load ptr, ptr %5, align 8
  call void @llvm.lifetime.start.p0(i64 8, ptr %9) #3
  %15 = load ptr, ptr %6, align 8, !tbaa !48
  %16 = load ptr, ptr %15, align 8, !tbaa !52
  %17 = getelementptr inbounds ptr, ptr %16, i64 5
  %18 = load ptr, ptr %17, align 8
  %19 = call noundef i64 %18(ptr noundef nonnull align 8 dereferenceable(40) %15)
  store i64 %19, ptr %9, align 8, !tbaa !26
  %20 = load ptr, ptr %6, align 8, !tbaa !48
  %21 = load i8, ptr %7, align 1, !tbaa !50, !range !54, !noundef !55
  %22 = trunc i8 %21 to i1
  %23 = load i8, ptr %8, align 1, !tbaa !50, !range !54, !noundef !55
  %24 = trunc i8 %23 to i1
  invoke void @_ZN7Imf_3_411TileOffsets9findTilesERNS_7IStreamEbbb(ptr noundef nonnull align 8 dereferenceable(40) %14, ptr noundef nonnull align 8 dereferenceable(40) %20, i1 noundef zeroext %22, i1 noundef zeroext %24, i1 noundef zeroext false)
          to label %25 unwind label %26

25:                                               ; preds = %4
  br label %33

26:                                               ; preds = %4
  %27 = landingpad { ptr, i32 }
          catch ptr null
  %28 = extractvalue { ptr, i32 } %27, 0
  store ptr %28, ptr %10, align 8
  %29 = extractvalue { ptr, i32 } %27, 1
  store i32 %29, ptr %11, align 4
  br label %30

30:                                               ; preds = %26
  %31 = load ptr, ptr %10, align 8
  %32 = call ptr @__cxa_begin_catch(ptr %31) #3
  call void @__cxa_end_catch()
  br label %33

33:                                               ; preds = %30, %25
  %34 = load ptr, ptr %6, align 8, !tbaa !48
  %35 = load ptr, ptr %34, align 8, !tbaa !52
  %36 = getelementptr inbounds ptr, ptr %35, i64 7
  %37 = load ptr, ptr %36, align 8
  call void %37(ptr noundef nonnull align 8 dereferenceable(40) %34)
  %38 = load ptr, ptr %6, align 8, !tbaa !48
  %39 = load i64, ptr %9, align 8, !tbaa !26
  %40 = load ptr, ptr %38, align 8, !tbaa !52
  %41 = getelementptr inbounds ptr, ptr %40, i64 6
  %42 = load ptr, ptr %41, align 8
  call void %42(ptr noundef nonnull align 8 dereferenceable(40) %38, i64 noundef %39)
  call void @llvm.lifetime.end.p0(i64 8, ptr %9) #3
  ret void
}