; Function Attrs: mustprogress uwtable
define hidden void @_ZN7Imf_3_411TileOffsets19reconstructFromFileERNS_7IStreamEbb(ptr noundef nonnull readonly align 8 captures(none) dereferenceable(40) %0, ptr noundef nonnull align 8 dereferenceable(40) %1, i1 noundef zeroext %2, i1 noundef zeroext %3) local_unnamed_addr #3 align 2 personality ptr @__gxx_personality_v0 {
  %5 = load ptr, ptr %1, align 8, !tbaa !51
  %6 = getelementptr inbounds nuw i8, ptr %5, i64 40
  %7 = load ptr, ptr %6, align 8
  %8 = tail call noundef i64 %7(ptr noundef nonnull align 8 dereferenceable(40) %1)
  invoke void @_ZN7Imf_3_411TileOffsets9findTilesERNS_7IStreamEbbb(ptr noundef nonnull align 8 dereferenceable(40) %0, ptr noundef nonnull align 8 dereferenceable(40) %1, i1 noundef zeroext %2, i1 noundef zeroext %3, i1 noundef zeroext false)
          to label %13 unwind label %9

9:                                                ; preds = %4
  %10 = landingpad { ptr, i32 }
          catch ptr null
  %11 = extractvalue { ptr, i32 } %10, 0
  %12 = tail call ptr @__cxa_begin_catch(ptr %11) #23
  tail call void @__cxa_end_catch()
  br label %13

13:                                               ; preds = %4, %9
  %14 = load ptr, ptr %1, align 8, !tbaa !51
  %15 = getelementptr inbounds nuw i8, ptr %14, i64 56
  %16 = load ptr, ptr %15, align 8
  tail call void %16(ptr noundef nonnull align 8 dereferenceable(40) %1)
  %17 = load ptr, ptr %1, align 8, !tbaa !51
  %18 = getelementptr inbounds nuw i8, ptr %17, i64 48
  %19 = load ptr, ptr %18, align 8
  tail call void %19(ptr noundef nonnull align 8 dereferenceable(40) %1, i64 noundef %8)
  ret void
}